target datalayout = "e-m:e-p270:32:32-p271:32:32-p272:64:64-i64:64-i128:128-f80:128-n8:16:32:64-S128"
target triple = "x86_64-pc-linux-gnu"

%"class.icu_77::SimpleFilteredSentenceBreakData" = type <{ ptr, %"class.icu_77::LocalPointer", %"class.icu_77::LocalPointer", %"struct.std::atomic", [4 x i8] }>
%"class.icu_77::LocalPointer" = type { %"class.icu_77::LocalPointerBase" }
%"class.icu_77::LocalPointerBase" = type { ptr }
%"struct.std::atomic" = type { %"struct.std::__atomic_base" }
%"struct.std::__atomic_base" = type { i32 }
%"class.icu_77::SimpleFilteredSentenceBreakIterator" = type { %"class.icu_77::BreakIterator", ptr, %"class.icu_77::LocalPointer.0", %"class.icu_77::internal::LocalOpenPointer" }
%"class.icu_77::BreakIterator" = type { %"class.icu_77::UObject", ptr, ptr, ptr }
%"class.icu_77::UObject" = type { ptr }
%"class.icu_77::LocalPointer.0" = type { %"class.icu_77::LocalPointerBase.1" }
%"class.icu_77::LocalPointerBase.1" = type { ptr }
%"class.icu_77::internal::LocalOpenPointer" = type { %"class.icu_77::LocalPointerBase.2" }
%"class.icu_77::LocalPointerBase.2" = type { ptr }
%"class.icu_77::Locale" = type <{ %"class.icu_77::UObject", [12 x i8], [6 x i8], [4 x i8], [2 x i8], i32, [4 x i8], ptr, [157 x i8], [3 x i8], ptr, i8, [7 x i8] }>

@_ZTVN6icu_7731SimpleFilteredSentenceBreakDataE = unnamed_addr constant { [4 x ptr] } { [4 x ptr] [ptr null, ptr @_ZTIN6icu_7731SimpleFilteredSentenceBreakDataE, ptr @_ZN6icu_7731SimpleFilteredSentenceBreakDataD1Ev, ptr @_ZN6icu_7731SimpleFilteredSentenceBreakDataD0Ev] }, align 8

; Function Attrs: mustprogress nounwind uwtable
define linkonce_odr void @_ZN6icu_7716LocalPointerBaseINS_10UCharsTrieEED2Ev(ptr noundef nonnull align 8 dereferenceable(8) %0) unnamed_addr #1 comdat align 2 {
  %2 = alloca ptr, align 8
  store ptr %0, ptr %2, align 8, !tbaa !113
  ret void
}

; Function Attrs: mustprogress nounwind uwtable
define linkonce_odr void @_ZNSt13__atomic_baseIiEC2Ei(ptr noundef nonnull align 4 dereferenceable(4) %0, i32 noundef %1) unnamed_addr #1 comdat align 2 {
  %3 = alloca ptr, align 8
  %4 = alloca i32, align 4
  store ptr %0, ptr %3, align 8, !tbaa !127
  store i32 %1, ptr %4, align 4, !tbaa !46
  %5 = load ptr, ptr %3, align 8
  %6 = getelementptr inbounds nuw %"struct.std::__atomic_base", ptr %5, i32 0, i32 0
  %7 = load i32, ptr %4, align 4, !tbaa !46
  store i32 %7, ptr %6, align 4, !tbaa !131
  ret void
}

; Function Attrs: mustprogress nounwind uwtable
define linkonce_odr void @_ZN6icu_7716LocalPointerBaseINS_10UCharsTrieEEC2EPS1_(ptr noundef nonnull align 8 dereferenceable(8) %0, ptr noundef %1) unnamed_addr #1 comdat align 2 {
  %3 = alloca ptr, align 8
  %4 = alloca ptr, align 8
  store ptr %0, ptr %3, align 8, !tbaa !113
  store ptr %1, ptr %4, align 8, !tbaa !39
  %5 = load ptr, ptr %3, align 8
  %6 = getelementptr inbounds nuw %"class.icu_77::LocalPointerBase", ptr %5, i32 0, i32 0
  %7 = load ptr, ptr %4, align 8, !tbaa !39
  store ptr %7, ptr %6, align 8, !tbaa !14
  ret void
}

; Function Attrs: mustprogress nounwind uwtable
define linkonce_odr void @_ZN6icu_7716LocalPointerBaseINS_13BreakIteratorEED2Ev(ptr noundef nonnull align 8 dereferenceable(8) %0) unnamed_addr #1 comdat align 2 {
  %2 = alloca ptr, align 8
  store ptr %0, ptr %2, align 8, !tbaa !30
  ret void
}

; Function Attrs: noinline noreturn nounwind uwtable
define linkonce_odr hidden void @__clang_call_terminate(ptr noundef %0) #6 comdat {
  %2 = call ptr @__cxa_begin_catch(ptr %0) #13
  call void @_ZSt9terminatev() #14
  unreachable
}

; Function Attrs: mustprogress nounwind uwtable
define linkonce_odr void @_ZN6icu_7716LocalPointerBaseI5UTextED2Ev(ptr noundef nonnull align 8 dereferenceable(8) %0) unnamed_addr #1 comdat align 2 {
  %2 = alloca ptr, align 8
  store ptr %0, ptr %2, align 8, !tbaa !44
  ret void
}

; Function Attrs: mustprogress nounwind uwtable
define linkonce_odr void @_ZN6icu_7716LocalPointerBaseI5UTextEC2EPS1_(ptr noundef nonnull align 8 dereferenceable(8) %0, ptr noundef %1) unnamed_addr #1 comdat align 2 {
  %3 = alloca ptr, align 8
  %4 = alloca ptr, align 8
  store ptr %0, ptr %3, align 8, !tbaa !44
  store ptr %1, ptr %4, align 8, !tbaa !38
  %5 = load ptr, ptr %3, align 8
  %6 = getelementptr inbounds nuw %"class.icu_77::LocalPointerBase.2", ptr %5, i32 0, i32 0
  %7 = load ptr, ptr %4, align 8, !tbaa !38
  store ptr %7, ptr %6, align 8, !tbaa !43
  ret void
}

; Function Attrs: mustprogress nounwind uwtable
define linkonce_odr void @_ZN6icu_7716LocalPointerBaseINS_13BreakIteratorEEC2EPS1_(ptr noundef nonnull align 8 dereferenceable(8) %0, ptr noundef %1) unnamed_addr #1 comdat align 2 {
  %3 = alloca ptr, align 8
  %4 = alloca ptr, align 8
  store ptr %0, ptr %3, align 8, !tbaa !30
  store ptr %1, ptr %4, align 8, !tbaa !35
  %5 = load ptr, ptr %3, align 8
  %6 = getelementptr inbounds nuw %"class.icu_77::LocalPointerBase.1", ptr %5, i32 0, i32 0
  %7 = load ptr, ptr %4, align 8, !tbaa !35
  store ptr %7, ptr %6, align 8, !tbaa !32
  ret void
}

; Function Attrs: mustprogress nounwind uwtable
define linkonce_odr void @_ZN6icu_7712LocalPointerINS_10UCharsTrieEED2Ev(ptr noundef nonnull align 8 dereferenceable(8) %0) unnamed_addr #1 comdat align 2 {
  %2 = alloca ptr, align 8
  store ptr %0, ptr %2, align 8, !tbaa !12
  %3 = load ptr, ptr %2, align 8
  %4 = getelementptr inbounds nuw %"class.icu_77::LocalPointerBase", ptr %3, i32 0, i32 0
  %5 = load ptr, ptr %4, align 8, !tbaa !14
  %6 = icmp eq ptr %5, null
  br i1 %6, label %8, label %7

7:                                                ; preds = %1
  call void @_ZN6icu_7710UCharsTrieD1Ev(ptr noundef nonnull align 8 dereferenceable(28) %5) #13
  call void @_ZN6icu_777UMemorydlEPv(ptr noundef %5) #13
  br label %8

8:                                                ; preds = %7, %1
  call void @_ZN6icu_7716LocalPointerBaseINS_10UCharsTrieEED2Ev(ptr noundef nonnull align 8 dereferenceable(8) %3) #13
  ret void
}

; Function Attrs: mustprogress nounwind uwtable
define linkonce_odr void @_ZNSt6atomicIiEC2Ei(ptr noundef nonnull align 4 dereferenceable(4) %0, i32 noundef %1) unnamed_addr #1 comdat align 2 {
  %3 = alloca ptr, align 8
  %4 = alloca i32, align 4
  store ptr %0, ptr %3, align 8, !tbaa !125
  store i32 %1, ptr %4, align 4, !tbaa !46
  %5 = load ptr, ptr %3, align 8
  %6 = load i32, ptr %4, align 4, !tbaa !46
  call void @_ZNSt13__atomic_baseIiEC2Ei(ptr noundef nonnull align 4 dereferenceable(4) %5, i32 noundef %6) #13
  ret void
}

; Function Attrs: mustprogress uwtable
define linkonce_odr void @_ZN6icu_7712LocalPointerINS_10UCharsTrieEEC2EPS1_(ptr noundef nonnull align 8 dereferenceable(8) %0, ptr noundef %1) unnamed_addr #2 comdat align 2 {
  %3 = alloca ptr, align 8
  %4 = alloca ptr, align 8
  store ptr %0, ptr %3, align 8, !tbaa !12
  store ptr %1, ptr %4, align 8, !tbaa !39
  %5 = load ptr, ptr %3, align 8
  %6 = load ptr, ptr %4, align 8, !tbaa !39
  call void @_ZN6icu_7716LocalPointerBaseINS_10UCharsTrieEEC2EPS1_(ptr noundef nonnull align 8 dereferenceable(8) %5, ptr noundef %6)
  ret void
}

; Function Attrs: mustprogress nounwind uwtable
define linkonce_odr void @_ZN6icu_7712LocalPointerINS_13BreakIteratorEED2Ev(ptr noundef nonnull align 8 dereferenceable(8) %0) unnamed_addr #1 comdat align 2 {
  %2 = alloca ptr, align 8
  store ptr %0, ptr %2, align 8, !tbaa !33
  %3 = load ptr, ptr %2, align 8
  %4 = getelementptr inbounds nuw %"class.icu_77::LocalPointerBase.1", ptr %3, i32 0, i32 0
  %5 = load ptr, ptr %4, align 8, !tbaa !32
  %6 = icmp eq ptr %5, null
  br i1 %6, label %11, label %7

7:                                                ; preds = %1
  %8 = load ptr, ptr %5, align 8, !tbaa !10
  %9 = getelementptr inbounds ptr, ptr %8, i64 1
  %10 = load ptr, ptr %9, align 8
  call void %10(ptr noundef nonnull align 8 dereferenceable(32) %5) #13
  br label %11

11:                                               ; preds = %7, %1
  call void @_ZN6icu_7716LocalPointerBaseINS_13BreakIteratorEED2Ev(ptr noundef nonnull align 8 dereferenceable(8) %3) #13
  ret void
}

; Function Attrs: mustprogress nounwind uwtable
define linkonce_odr void @_ZN6icu_778internal16LocalOpenPointerI5UTextXadL_Z14utext_close_77EEED2Ev(ptr noundef nonnull align 8 dereferenceable(8) %0) unnamed_addr #1 comdat align 2 personality ptr @__gxx_personality_v0 {
  %2 = alloca ptr, align 8
  store ptr %0, ptr %2, align 8, !tbaa !36
  %3 = load ptr, ptr %2, align 8
  %4 = getelementptr inbounds nuw %"class.icu_77::LocalPointerBase.2", ptr %3, i32 0, i32 0
  %5 = load ptr, ptr %4, align 8, !tbaa !43
  %6 = icmp ne ptr %5, null
  br i1 %6, label %7, label %12

7:                                                ; preds = %1
  %8 = getelementptr inbounds nuw %"class.icu_77::LocalPointerBase.2", ptr %3, i32 0, i32 0
  %9 = load ptr, ptr %8, align 8, !tbaa !43
  %10 = invoke noundef ptr @utext_close_77(ptr noundef %9)
          to label %11 unwind label %13

11:                                               ; preds = %7
  br label %12

12:                                               ; preds = %11, %1
  call void @_ZN6icu_7716LocalPointerBaseI5UTextED2Ev(ptr noundef nonnull align 8 dereferenceable(8) %3) #13
  ret void

13:                                               ; preds = %7
  %14 = landingpad { ptr, i32 }
          catch ptr null
  %15 = extractvalue { ptr, i32 } %14, 0
  call void @__clang_call_terminate(ptr %15) #14
  unreachable
}

; Function Attrs: inlinehint mustprogress nounwind uwtable
define internal noundef signext i8 @_ZL9U_SUCCESS10UErrorCode(i32 noundef %0) #5 {
  %2 = alloca i32, align 4
  store i32 %0, ptr %2, align 4, !tbaa !41
  %3 = load i32, ptr %2, align 4, !tbaa !41
  %4 = icmp sle i32 %3, 0
  %5 = zext i1 %4 to i8
  ret i8 %5
}

; Function Attrs: mustprogress uwtable
define linkonce_odr void @_ZN6icu_778internal16LocalOpenPointerI5UTextXadL_Z14utext_close_77EEEC2EPS2_(ptr noundef nonnull align 8 dereferenceable(8) %0, ptr noundef %1) unnamed_addr #2 comdat align 2 {
  %3 = alloca ptr, align 8
  %4 = alloca ptr, align 8
  store ptr %0, ptr %3, align 8, !tbaa !36
  store ptr %1, ptr %4, align 8, !tbaa !38
  %5 = load ptr, ptr %3, align 8
  %6 = load ptr, ptr %4, align 8, !tbaa !38
  call void @_ZN6icu_7716LocalPointerBaseI5UTextEC2EPS1_(ptr noundef nonnull align 8 dereferenceable(8) %5, ptr noundef %6)
  ret void
}

; Function Attrs: mustprogress uwtable
define linkonce_odr void @_ZN6icu_7712LocalPointerINS_13BreakIteratorEEC2EPS1_(ptr noundef nonnull align 8 dereferenceable(8) %0, ptr noundef %1) unnamed_addr #2 comdat align 2 {
  %3 = alloca ptr, align 8
  %4 = alloca ptr, align 8
  store ptr %0, ptr %3, align 8, !tbaa !33
  store ptr %1, ptr %4, align 8, !tbaa !35
  %5 = load ptr, ptr %3, align 8
  %6 = load ptr, ptr %4, align 8, !tbaa !35
  call void @_ZN6icu_7716LocalPointerBaseINS_13BreakIteratorEEC2EPS1_(ptr noundef nonnull align 8 dereferenceable(8) %5, ptr noundef %6)
  ret void
}

; Function Attrs: mustprogress uwtable
define linkonce_odr void @_ZN6icu_7731SimpleFilteredSentenceBreakDataC2EPNS_10UCharsTrieES2_(ptr noundef nonnull align 8 dereferenceable(28) %0, ptr noundef %1, ptr noundef %2) unnamed_addr #2 comdat align 2 personality ptr @__gxx_personality_v0 {
  %4 = alloca ptr, align 8
  %5 = alloca ptr, align 8
  %6 = alloca ptr, align 8
  %7 = alloca ptr, align 8
  %8 = alloca i32, align 4
  store ptr %0, ptr %4, align 8, !tbaa !8
  store ptr %1, ptr %5, align 8, !tbaa !39
  store ptr %2, ptr %6, align 8, !tbaa !39
  %9 = load ptr, ptr %4, align 8
  store ptr getelementptr inbounds inrange(-16, 16) ({ [4 x ptr] }, ptr @_ZTVN6icu_7731SimpleFilteredSentenceBreakDataE, i32 0, i32 0, i32 2), ptr %9, align 8, !tbaa !10
  %10 = getelementptr inbounds nuw %"class.icu_77::SimpleFilteredSentenceBreakData", ptr %9, i32 0, i32 1
  %11 = load ptr, ptr %5, align 8, !tbaa !39
  call void @_ZN6icu_7712LocalPointerINS_10UCharsTrieEEC2EPS1_(ptr noundef nonnull align 8 dereferenceable(8) %10, ptr noundef %11)
  %12 = getelementptr inbounds nuw %"class.icu_77::SimpleFilteredSentenceBreakData", ptr %9, i32 0, i32 2
  %13 = load ptr, ptr %6, align 8, !tbaa !39
  invoke void @_ZN6icu_7712LocalPointerINS_10UCharsTrieEEC2EPS1_(ptr noundef nonnull align 8 dereferenceable(8) %12, ptr noundef %13)
          to label %14 unwind label %16

14:                                               ; preds = %3
  %15 = getelementptr inbounds nuw %"class.icu_77::SimpleFilteredSentenceBreakData", ptr %9, i32 0, i32 3
  call void @_ZNSt6atomicIiEC2Ei(ptr noundef nonnull align 4 dereferenceable(4) %15, i32 noundef 1) #13
  ret void

16:                                               ; preds = %3
  %17 = landingpad { ptr, i32 }
          cleanup
  %18 = extractvalue { ptr, i32 } %17, 0
  store ptr %18, ptr %7, align 8
  %19 = extractvalue { ptr, i32 } %17, 1
  store i32 %19, ptr %8, align 4
  call void @_ZN6icu_7712LocalPointerINS_10UCharsTrieEED2Ev(ptr noundef nonnull align 8 dereferenceable(8) %10) #13
  br label %20

20:                                               ; preds = %16
  %21 = load ptr, ptr %7, align 8
  %22 = load i32, ptr %8, align 4
  %23 = insertvalue { ptr, i32 } poison, ptr %21, 0
  %24 = insertvalue { ptr, i32 } %23, i32 %22, 1
  resume { ptr, i32 } %24
}

; Function Attrs: mustprogress uwtable
define void @_ZN6icu_7735SimpleFilteredSentenceBreakIteratorC2EPNS_13BreakIteratorEPNS_10UCharsTrieES4_R10UErrorCode(ptr noundef nonnull align 8 dereferenceable(56) %0, ptr noundef %1, ptr noundef %2, ptr noundef %3, ptr noundef nonnull align 4 dereferenceable(4) %4) unnamed_addr #2 align 2 personality ptr @__gxx_personality_v0 {
  %6 = alloca ptr, align 8
  %7 = alloca ptr, align 8
  %8 = alloca ptr, align 8
  %9 = alloca ptr, align 8
  %10 = alloca ptr, align 8
  %11 = alloca %"class.icu_77::Locale", align 8
  %12 = alloca %"class.icu_77::Locale", align 8
  %13 = alloca ptr, align 8
  %14 = alloca i32, align 4
  %15 = alloca ptr, align 8
  %16 = alloca i1, align 1
  store ptr %0, ptr %6, align 8, !tbaa !17
  store ptr %1, ptr %7, align 8, !tbaa !35
  store ptr %2, ptr %8, align 8, !tbaa !39
  store ptr %3, ptr %9, align 8, !tbaa !39
  store ptr %4, ptr %10, align 8, !tbaa !40
  %17 = load ptr, ptr %6, align 8
  call void @llvm.lifetime.start.p0(i64 224, ptr %11) #13
  %18 = load ptr, ptr %7, align 8, !tbaa !35
  %19 = load ptr, ptr %10, align 8, !tbaa !40
  call void @_ZNK6icu_7713BreakIterator9getLocaleE18ULocDataLocaleTypeR10UErrorCode(ptr dead_on_unwind writable sret(%"class.icu_77::Locale") align 8 %11, ptr noundef nonnull align 8 dereferenceable(32) %18, i32 noundef 1, ptr noundef nonnull align 4 dereferenceable(4) %19)
  call void @llvm.lifetime.start.p0(i64 224, ptr %12) #13
  %20 = load ptr, ptr %7, align 8, !tbaa !35
  %21 = load ptr, ptr %10, align 8, !tbaa !40
  invoke void @_ZNK6icu_7713BreakIterator9getLocaleE18ULocDataLocaleTypeR10UErrorCode(ptr dead_on_unwind writable sret(%"class.icu_77::Locale") align 8 %12, ptr noundef nonnull align 8 dereferenceable(32) %20, i32 noundef 0, ptr noundef nonnull align 4 dereferenceable(4) %21)
          to label %22 unwind label %57

22:                                               ; preds = %5
  invoke void @_ZN6icu_7713BreakIteratorC2ERKNS_6LocaleES3_(ptr noundef nonnull align 8 dereferenceable(32) %17, ptr noundef nonnull align 8 dereferenceable(217) %11, ptr noundef nonnull align 8 dereferenceable(217) %12)
          to label %23 unwind label %61

23:                                               ; preds = %22
  call void @_ZN6icu_776LocaleD1Ev(ptr noundef nonnull align 8 dereferenceable(217) %12) #13
  call void @llvm.lifetime.end.p0(i64 224, ptr %12) #13
  call void @_ZN6icu_776LocaleD1Ev(ptr noundef nonnull align 8 dereferenceable(217) %11) #13
  call void @llvm.lifetime.end.p0(i64 224, ptr %11) #13
  store ptr getelementptr inbounds inrange(-16, 184) ({ [25 x ptr] }, ptr @_ZTVN6icu_7735SimpleFilteredSentenceBreakIteratorE, i32 0, i32 0, i32 2), ptr %17, align 8, !tbaa !10
  %24 = getelementptr inbounds nuw %"class.icu_77::SimpleFilteredSentenceBreakIterator", ptr %17, i32 0, i32 1
  %25 = call noundef ptr @_ZN6icu_777UMemorynwEm(i64 noundef 32) #13
  %26 = icmp eq ptr %25, null
  store i1 false, ptr %16, align 1
  br i1 %26, label %31, label %27

27:                                               ; preds = %23
  store ptr %25, ptr %15, align 8
  store i1 true, ptr %16, align 1
  %28 = load ptr, ptr %8, align 8, !tbaa !39
  %29 = load ptr, ptr %9, align 8, !tbaa !39
  invoke void @_ZN6icu_7731SimpleFilteredSentenceBreakDataC2EPNS_10UCharsTrieES2_(ptr noundef nonnull align 8 dereferenceable(28) %25, ptr noundef %28, ptr noundef %29)
          to label %30 unwind label %66

30:                                               ; preds = %27
  br label %31

31:                                               ; preds = %30, %23
  %32 = phi ptr [ %25, %30 ], [ null, %23 ]
  store ptr %32, ptr %24, align 8, !tbaa !19
  %33 = getelementptr inbounds nuw %"class.icu_77::SimpleFilteredSentenceBreakIterator", ptr %17, i32 0, i32 2
  %34 = load ptr, ptr %7, align 8, !tbaa !35
  invoke void @_ZN6icu_7712LocalPointerINS_13BreakIteratorEEC2EPS1_(ptr noundef nonnull align 8 dereferenceable(8) %33, ptr noundef %34)
          to label %35 unwind label %74

35:                                               ; preds = %31
  %36 = getelementptr inbounds nuw %"class.icu_77::SimpleFilteredSentenceBreakIterator", ptr %17, i32 0, i32 3
  invoke void @_ZN6icu_778internal16LocalOpenPointerI5UTextXadL_Z14utext_close_77EEEC2EPS2_(ptr noundef nonnull align 8 dereferenceable(8) %36, ptr noundef null)
          to label %37 unwind label %78

37:                                               ; preds = %35
  %38 = getelementptr inbounds nuw %"class.icu_77::SimpleFilteredSentenceBreakIterator", ptr %17, i32 0, i32 1
  %39 = load ptr, ptr %38, align 8, !tbaa !19
  %40 = icmp eq ptr %39, null
  br i1 %40, label %41, label %87

41:                                               ; preds = %37
  %42 = load ptr, ptr %8, align 8, !tbaa !39
  %43 = icmp eq ptr %42, null
  br i1 %43, label %45, label %44

44:                                               ; preds = %41
  call void @_ZN6icu_7710UCharsTrieD1Ev(ptr noundef nonnull align 8 dereferenceable(28) %42) #13
  call void @_ZN6icu_777UMemorydlEPv(ptr noundef %42) #13
  br label %45

45:                                               ; preds = %44, %41
  %46 = load ptr, ptr %9, align 8, !tbaa !39
  %47 = icmp eq ptr %46, null
  br i1 %47, label %49, label %48

48:                                               ; preds = %45
  call void @_ZN6icu_7710UCharsTrieD1Ev(ptr noundef nonnull align 8 dereferenceable(28) %46) #13
  call void @_ZN6icu_777UMemorydlEPv(ptr noundef %46) #13
  br label %49

49:                                               ; preds = %48, %45
  %50 = load ptr, ptr %10, align 8, !tbaa !40
  %51 = load i32, ptr %50, align 4, !tbaa !41
  %52 = invoke noundef signext i8 @_ZL9U_SUCCESS10UErrorCode(i32 noundef %51)
          to label %53 unwind label %82

53:                                               ; preds = %49
  %54 = icmp ne i8 %52, 0
  br i1 %54, label %55, label %86

55:                                               ; preds = %53
  %56 = load ptr, ptr %10, align 8, !tbaa !40
  store i32 7, ptr %56, align 4, !tbaa !41
  br label %86

57:                                               ; preds = %5
  %58 = landingpad { ptr, i32 }
          cleanup
  %59 = extractvalue { ptr, i32 } %58, 0
  store ptr %59, ptr %13, align 8
  %60 = extractvalue { ptr, i32 } %58, 1
  store i32 %60, ptr %14, align 4
  br label %65

61:                                               ; preds = %22
  %62 = landingpad { ptr, i32 }
          cleanup
  %63 = extractvalue { ptr, i32 } %62, 0
  store ptr %63, ptr %13, align 8
  %64 = extractvalue { ptr, i32 } %62, 1
  store i32 %64, ptr %14, align 4
  call void @_ZN6icu_776LocaleD1Ev(ptr noundef nonnull align 8 dereferenceable(217) %12) #13
  br label %65

65:                                               ; preds = %61, %57
  call void @llvm.lifetime.end.p0(i64 224, ptr %12) #13
  call void @_ZN6icu_776LocaleD1Ev(ptr noundef nonnull align 8 dereferenceable(217) %11) #13
  call void @llvm.lifetime.end.p0(i64 224, ptr %11) #13
  br label %90

66:                                               ; preds = %27
  %67 = landingpad { ptr, i32 }
          cleanup
  %68 = extractvalue { ptr, i32 } %67, 0
  store ptr %68, ptr %13, align 8
  %69 = extractvalue { ptr, i32 } %67, 1
  store i32 %69, ptr %14, align 4
  %70 = load i1, ptr %16, align 1
  br i1 %70, label %71, label %73

71:                                               ; preds = %66
  %72 = load ptr, ptr %15, align 8
  call void @_ZN6icu_777UMemorydlEPv(ptr noundef %72) #13
  br label %73

73:                                               ; preds = %71, %66
  br label %89

74:                                               ; preds = %31
  %75 = landingpad { ptr, i32 }
          cleanup
  %76 = extractvalue { ptr, i32 } %75, 0
  store ptr %76, ptr %13, align 8
  %77 = extractvalue { ptr, i32 } %75, 1
  store i32 %77, ptr %14, align 4
  br label %89

78:                                               ; preds = %35
  %79 = landingpad { ptr, i32 }
          cleanup
  %80 = extractvalue { ptr, i32 } %79, 0
  store ptr %80, ptr %13, align 8
  %81 = extractvalue { ptr, i32 } %79, 1
  store i32 %81, ptr %14, align 4
  br label %88

82:                                               ; preds = %49
  %83 = landingpad { ptr, i32 }
          cleanup
  %84 = extractvalue { ptr, i32 } %83, 0
  store ptr %84, ptr %13, align 8
  %85 = extractvalue { ptr, i32 } %83, 1
  store i32 %85, ptr %14, align 4
  call void @_ZN6icu_778internal16LocalOpenPointerI5UTextXadL_Z14utext_close_77EEED2Ev(ptr noundef nonnull align 8 dereferenceable(8) %36) #13
  br label %88

86:                                               ; preds = %55, %53
  br label %87

87:                                               ; preds = %86, %37
  ret void

88:                                               ; preds = %82, %78
  call void @_ZN6icu_7712LocalPointerINS_13BreakIteratorEED2Ev(ptr noundef nonnull align 8 dereferenceable(8) %33) #13
  br label %89

89:                                               ; preds = %88, %74, %73
  call void @_ZN6icu_7713BreakIteratorD2Ev(ptr noundef nonnull align 8 dereferenceable(32) %17) #13
  br label %90

90:                                               ; preds = %89, %65
  %91 = load ptr, ptr %13, align 8
  %92 = load i32, ptr %14, align 4
  %93 = insertvalue { ptr, i32 } poison, ptr %91, 0
  %94 = insertvalue { ptr, i32 } %93, i32 %92, 1
  resume { ptr, i32 } %94
}