; Function Attrs: mustprogress uwtable
define void @_ZN6icu_7735SimpleFilteredSentenceBreakIteratorC2EPNS_13BreakIteratorEPNS_10UCharsTrieES4_R10UErrorCode(ptr noundef nonnull align 8 dereferenceable(56) %0, ptr noundef nonnull %1, ptr noundef %2, ptr noundef %3, ptr noundef nonnull align 4 dereferenceable(4) %4) unnamed_addr #2 align 2 personality ptr @__gxx_personality_v0 {
  %6 = alloca %"class.icu_77::Locale", align 8
  %7 = alloca %"class.icu_77::Locale", align 8
  call void @llvm.lifetime.start.p0(i64 224, ptr nonnull %6) #14
  call void @_ZNK6icu_7713BreakIterator9getLocaleE18ULocDataLocaleTypeR10UErrorCode(ptr dead_on_unwind nonnull writable sret(%"class.icu_77::Locale") align 8 %6, ptr noundef nonnull align 8 dereferenceable(32) %1, i32 noundef 1, ptr noundef nonnull align 4 dereferenceable(4) %4)
  call void @llvm.lifetime.start.p0(i64 224, ptr nonnull %7) #14
  invoke void @_ZNK6icu_7713BreakIterator9getLocaleE18ULocDataLocaleTypeR10UErrorCode(ptr dead_on_unwind nonnull writable sret(%"class.icu_77::Locale") align 8 %7, ptr noundef nonnull align 8 dereferenceable(32) %1, i32 noundef 0, ptr noundef nonnull align 4 dereferenceable(4) %4)
          to label %8 unwind label %31

8:                                                ; preds = %5
  invoke void @_ZN6icu_7713BreakIteratorC2ERKNS_6LocaleES3_(ptr noundef nonnull align 8 dereferenceable(32) %0, ptr noundef nonnull align 8 dereferenceable(217) %6, ptr noundef nonnull align 8 dereferenceable(217) %7)
          to label %9 unwind label %33

9:                                                ; preds = %8
  call void @_ZN6icu_776LocaleD1Ev(ptr noundef nonnull align 8 dereferenceable(217) %7) #14
  call void @llvm.lifetime.end.p0(i64 224, ptr nonnull %7) #14
  call void @_ZN6icu_776LocaleD1Ev(ptr noundef nonnull align 8 dereferenceable(217) %6) #14
  call void @llvm.lifetime.end.p0(i64 224, ptr nonnull %6) #14
  store ptr getelementptr inbounds nuw inrange(-16, 184) (i8, ptr @_ZTVN6icu_7735SimpleFilteredSentenceBreakIteratorE, i64 16), ptr %0, align 8, !tbaa !3
  %10 = getelementptr inbounds nuw i8, ptr %0, i64 32
  %11 = call noundef ptr @_ZN6icu_777UMemorynwEm(i64 noundef 32) #14
  %12 = icmp eq ptr %11, null
  br i1 %12, label %19, label %13

13:                                               ; preds = %9
  store ptr getelementptr inbounds nuw inrange(-16, 16) (i8, ptr @_ZTVN6icu_7731SimpleFilteredSentenceBreakDataE, i64 16), ptr %11, align 8, !tbaa !3
  %14 = getelementptr inbounds nuw i8, ptr %11, i64 8
  store ptr %2, ptr %14, align 8, !tbaa !6
  %15 = getelementptr inbounds nuw i8, ptr %11, i64 16
  store ptr %3, ptr %15, align 8, !tbaa !6
  %16 = getelementptr inbounds nuw i8, ptr %11, i64 24
  store i32 1, ptr %16, align 4, !tbaa !25
  store ptr %11, ptr %10, align 8, !tbaa !11
  %17 = getelementptr inbounds nuw i8, ptr %0, i64 40
  store ptr %1, ptr %17, align 8, !tbaa !23
  %18 = getelementptr inbounds nuw i8, ptr %0, i64 48
  store ptr null, ptr %18, align 8, !tbaa !24
  br label %36

19:                                               ; preds = %9
  store ptr null, ptr %10, align 8, !tbaa !11
  %20 = getelementptr inbounds nuw i8, ptr %0, i64 40
  store ptr %1, ptr %20, align 8, !tbaa !23
  %21 = getelementptr inbounds nuw i8, ptr %0, i64 48
  store ptr null, ptr %21, align 8, !tbaa !24
  %22 = icmp eq ptr %2, null
  br i1 %22, label %24, label %23

23:                                               ; preds = %19
  call void @_ZN6icu_7710UCharsTrieD1Ev(ptr noundef nonnull align 8 dereferenceable(28) %2) #14
  call void @_ZN6icu_777UMemorydlEPv(ptr noundef nonnull %2) #14
  br label %24

24:                                               ; preds = %23, %19
  %25 = icmp eq ptr %3, null
  br i1 %25, label %27, label %26

26:                                               ; preds = %24
  call void @_ZN6icu_7710UCharsTrieD1Ev(ptr noundef nonnull align 8 dereferenceable(28) %3) #14
  call void @_ZN6icu_777UMemorydlEPv(ptr noundef nonnull %3) #14
  br label %27

27:                                               ; preds = %26, %24
  %28 = load i32, ptr %4, align 4, !tbaa !28
  %29 = icmp sgt i32 %28, 0
  br i1 %29, label %36, label %30

30:                                               ; preds = %27
  store i32 7, ptr %4, align 4, !tbaa !28
  br label %36

31:                                               ; preds = %5
  %32 = landingpad { ptr, i32 }
          cleanup
  br label %35

33:                                               ; preds = %8
  %34 = landingpad { ptr, i32 }
          cleanup
  call void @_ZN6icu_776LocaleD1Ev(ptr noundef nonnull align 8 dereferenceable(217) %7) #14
  br label %35

35:                                               ; preds = %33, %31
  %.pn = phi { ptr, i32 } [ %34, %33 ], [ %32, %31 ]
  call void @llvm.lifetime.end.p0(i64 224, ptr nonnull %7) #14
  call void @_ZN6icu_776LocaleD1Ev(ptr noundef nonnull align 8 dereferenceable(217) %6) #14
  call void @llvm.lifetime.end.p0(i64 224, ptr nonnull %6) #14
  resume { ptr, i32 } %.pn

36:                                               ; preds = %13, %27, %30
  ret void
}